; Function Attrs: nounwind uwtable
define range(i32 0, 2) i32 @ipaddnumoption_(ptr noundef readonly captures(none) %0, ptr noundef readonly captures(none) %1, ptr noundef readonly captures(none) %2, i32 noundef %3) local_unnamed_addr #0 {
  %5 = load ptr, ptr %0, align 8, !tbaa !23
  %invariant.gep.i = getelementptr i8, ptr %1, i64 -1
  %6 = icmp sgt i32 %3, 0
  br i1 %6, label %.lr.ph.i, label %._crit_edge.i

.lr.ph.i:                                         ; preds = %4, %9
  %.014.i = phi i32 [ %10, %9 ], [ %3, %4 ]
  %7 = zext nneg i32 %.014.i to i64
  %gep.i = getelementptr i8, ptr %invariant.gep.i, i64 %7
  %8 = load i8, ptr %gep.i, align 1, !tbaa !24
  %.not.i = icmp eq i8 %8, 32
  br i1 %.not.i, label %9, label %._crit_edge.i

9:                                                ; preds = %.lr.ph.i
  %10 = add nsw i32 %.014.i, -1
  %11 = icmp sgt i32 %.014.i, 1
  br i1 %11, label %.lr.ph.i, label %._crit_edge.i, !llvm.loop !25

._crit_edge.i:                                    ; preds = %9, %.lr.ph.i, %4
  %.0.lcssa.i = phi i32 [ %3, %4 ], [ 0, %9 ], [ %.014.i, %.lr.ph.i ]
  %12 = add nsw i32 %.0.lcssa.i, 1
  %13 = sext i32 %12 to i64
  %14 = tail call noalias ptr @malloc(i64 noundef %13) #7
  %.not13.i = icmp eq ptr %14, null
  br i1 %.not13.i, label %f2cstr.exit, label %15

15:                                               ; preds = %._crit_edge.i
  %16 = sext i32 %.0.lcssa.i to i64
  tail call void @llvm.memcpy.p0.p0.i64(ptr nonnull align 1 %14, ptr readonly align 1 %1, i64 %16, i1 false)
  %17 = getelementptr inbounds i8, ptr %14, i64 %16
  store i8 0, ptr %17, align 1, !tbaa !24
  br label %f2cstr.exit

f2cstr.exit:                                      ; preds = %._crit_edge.i, %15
  %18 = getelementptr inbounds nuw i8, ptr %5, i64 64
  %19 = load ptr, ptr %18, align 8, !tbaa !7
  %20 = load double, ptr %2, align 8, !tbaa !21
  %21 = tail call zeroext i1 @AddIpoptNumOption(ptr noundef %19, ptr noundef %14, double noundef %20) #8
  tail call void @free(ptr noundef %14) #8
  %not. = xor i1 %21, true
  %22 = zext i1 %not. to i32
  ret i32 %22
}